; Function Attrs: mustprogress uwtable
define void @_ZN3gmx29assignOptionsFromKeyValueTreeEPNS_7OptionsERKNS_18KeyValueTreeObjectEPNS_25IKeyValueTreeErrorHandlerE(ptr noundef %0, ptr nocapture noundef nonnull readonly align 8 dereferenceable(72) %1, ptr noundef %2) local_unnamed_addr #0 personality ptr @__gxx_personality_v0 {
  %4 = alloca %"class.gmx::(anonymous namespace)::TreeAssignHelper", align 8
  call void @_ZN3gmx15OptionsAssignerC1EPNS_7OptionsE(ptr noundef nonnull align 8 dereferenceable(8) %4, ptr noundef %0)
  %5 = getelementptr inbounds i8, ptr %4, i64 8
  store ptr %2, ptr %5, align 8
  %6 = getelementptr inbounds i8, ptr %4, i64 16
  call void @llvm.memset.p0.i64(ptr noundef nonnull align 8 dereferenceable(24) %6, i8 0, i64 24, i1 false)
  %7 = icmp eq ptr %2, null
  br i1 %7, label %8, label %_ZN3gmx12_GLOBAL__N_116TreeAssignHelperC2EPNS_7OptionsEPNS_25IKeyValueTreeErrorHandlerE.exit

8:                                                ; preds = %3
  %9 = invoke noundef ptr @_ZN3gmx31defaultKeyValueTreeErrorHandlerEv()
          to label %10 unwind label %11

10:                                               ; preds = %8
  store ptr %9, ptr %5, align 8
  br label %_ZN3gmx12_GLOBAL__N_116TreeAssignHelperC2EPNS_7OptionsEPNS_25IKeyValueTreeErrorHandlerE.exit

common.resume:                                    ; preds = %19, %11
  %common.resume.op = phi { ptr, i32 } [ %12, %11 ], [ %20, %19 ]
  resume { ptr, i32 } %common.resume.op

11:                                               ; preds = %8
  %12 = landingpad { ptr, i32 }
          cleanup
  call void @_ZN3gmx16KeyValueTreePathD2Ev(ptr noundef nonnull align 8 dereferenceable(24) %6) #17
  call void @_ZN3gmx15OptionsAssignerD1Ev(ptr noundef nonnull align 8 dereferenceable(8) %4) #17
  br label %common.resume

_ZN3gmx12_GLOBAL__N_116TreeAssignHelperC2EPNS_7OptionsEPNS_25IKeyValueTreeErrorHandlerE.exit: ; preds = %3, %10
  invoke void @_ZN3gmx15OptionsAssigner5startEv(ptr noundef nonnull align 8 dereferenceable(8) %4)
          to label %.noexc unwind label %19

.noexc:                                           ; preds = %_ZN3gmx12_GLOBAL__N_116TreeAssignHelperC2EPNS_7OptionsEPNS_25IKeyValueTreeErrorHandlerE.exit
  invoke fastcc void @_ZN3gmx12_GLOBAL__N_116TreeAssignHelper13assignSubTreeERKNS_18KeyValueTreeObjectE(ptr noundef nonnull align 8 dereferenceable(40) %4, ptr noundef nonnull align 8 dereferenceable(72) %1)
          to label %.noexc4 unwind label %19

.noexc4:                                          ; preds = %.noexc
  invoke void @_ZN3gmx15OptionsAssigner6finishEv(ptr noundef nonnull align 8 dereferenceable(8) %4)
          to label %_ZN3gmx12_GLOBAL__N_116TreeAssignHelper9assignAllERKNS_18KeyValueTreeObjectE.exit unwind label %19

_ZN3gmx12_GLOBAL__N_116TreeAssignHelper9assignAllERKNS_18KeyValueTreeObjectE.exit: ; preds = %.noexc4
  %13 = load ptr, ptr %6, align 8
  %14 = getelementptr inbounds i8, ptr %4, i64 24
  %15 = load ptr, ptr %14, align 8
  %.not4.i.i.i.i.i.i = icmp eq ptr %13, %15
  br i1 %.not4.i.i.i.i.i.i, label %_ZSt8_DestroyIPNSt7__cxx1112basic_stringIcSt11char_traitsIcESaIcEEES5_EvT_S7_RSaIT0_E.exit.i.i.i, label %.lr.ph.i.i.i.i.i.i

.lr.ph.i.i.i.i.i.i:                               ; preds = %_ZN3gmx12_GLOBAL__N_116TreeAssignHelper9assignAllERKNS_18KeyValueTreeObjectE.exit, %.lr.ph.i.i.i.i.i.i
  %.05.i.i.i.i.i.i = phi ptr [ %16, %.lr.ph.i.i.i.i.i.i ], [ %13, %_ZN3gmx12_GLOBAL__N_116TreeAssignHelper9assignAllERKNS_18KeyValueTreeObjectE.exit ]
  call void @_ZNSt7__cxx1112basic_stringIcSt11char_traitsIcESaIcEED1Ev(ptr noundef nonnull align 8 dereferenceable(32) %.05.i.i.i.i.i.i) #17
  %16 = getelementptr inbounds i8, ptr %.05.i.i.i.i.i.i, i64 32
  %.not.i.i.i.i.i.i = icmp eq ptr %16, %15
  br i1 %.not.i.i.i.i.i.i, label %_ZSt8_DestroyIPNSt7__cxx1112basic_stringIcSt11char_traitsIcESaIcEEES5_EvT_S7_RSaIT0_E.exitthread-pre-split.i.i.i, label %.lr.ph.i.i.i.i.i.i, !llvm.loop !4

_ZSt8_DestroyIPNSt7__cxx1112basic_stringIcSt11char_traitsIcESaIcEEES5_EvT_S7_RSaIT0_E.exitthread-pre-split.i.i.i: ; preds = %.lr.ph.i.i.i.i.i.i
  %.pr.i.i.i = load ptr, ptr %6, align 8
  br label %_ZSt8_DestroyIPNSt7__cxx1112basic_stringIcSt11char_traitsIcESaIcEEES5_EvT_S7_RSaIT0_E.exit.i.i.i

_ZSt8_DestroyIPNSt7__cxx1112basic_stringIcSt11char_traitsIcESaIcEEES5_EvT_S7_RSaIT0_E.exit.i.i.i: ; preds = %_ZSt8_DestroyIPNSt7__cxx1112basic_stringIcSt11char_traitsIcESaIcEEES5_EvT_S7_RSaIT0_E.exitthread-pre-split.i.i.i, %_ZN3gmx12_GLOBAL__N_116TreeAssignHelper9assignAllERKNS_18KeyValueTreeObjectE.exit
  %17 = phi ptr [ %.pr.i.i.i, %_ZSt8_DestroyIPNSt7__cxx1112basic_stringIcSt11char_traitsIcESaIcEEES5_EvT_S7_RSaIT0_E.exitthread-pre-split.i.i.i ], [ %13, %_ZN3gmx12_GLOBAL__N_116TreeAssignHelper9assignAllERKNS_18KeyValueTreeObjectE.exit ]
  %.not.i.i.i.i.i = icmp eq ptr %17, null
  br i1 %.not.i.i.i.i.i, label %_ZN3gmx12_GLOBAL__N_116TreeAssignHelperD2Ev.exit, label %18

18:                                               ; preds = %_ZSt8_DestroyIPNSt7__cxx1112basic_stringIcSt11char_traitsIcESaIcEEES5_EvT_S7_RSaIT0_E.exit.i.i.i
  call void @_ZdlPv(ptr noundef nonnull %17) #18
  br label %_ZN3gmx12_GLOBAL__N_116TreeAssignHelperD2Ev.exit

_ZN3gmx12_GLOBAL__N_116TreeAssignHelperD2Ev.exit: ; preds = %_ZSt8_DestroyIPNSt7__cxx1112basic_stringIcSt11char_traitsIcESaIcEEES5_EvT_S7_RSaIT0_E.exit.i.i.i, %18
  call void @_ZN3gmx15OptionsAssignerD1Ev(ptr noundef nonnull align 8 dereferenceable(8) %4) #17
  ret void

19:                                               ; preds = %.noexc4, %.noexc, %_ZN3gmx12_GLOBAL__N_116TreeAssignHelperC2EPNS_7OptionsEPNS_25IKeyValueTreeErrorHandlerE.exit
  %20 = landingpad { ptr, i32 }
          cleanup
  call fastcc void @_ZN3gmx12_GLOBAL__N_116TreeAssignHelperD2Ev(ptr noundef nonnull align 8 dereferenceable(40) %4) #17
  br label %common.resume
}